; ModuleID = 'source-C-CXX/53/773.cpp'
source_filename = "source-C-CXX/53/773.cpp"
target datalayout = "e-m:e-p270:32:32-p271:32:32-p272:64:64-i64:64-f80:128-n8:16:32:64-S128"
target triple = "x86_64-pc-linux-gnu"

%"class.std::ios_base::Init" = type { i8 }
%"class.std::basic_ostream" = type { i32 (...)**, %"class.std::basic_ios" }
%"class.std::basic_ios" = type { %"class.std::ios_base", %"class.std::basic_ostream"*, i8, i8, %"class.std::basic_streambuf"*, %"class.std::ctype"*, %"class.std::num_put"*, %"class.std::num_get"* }
%"class.std::ios_base" = type { i32 (...)**, i64, i64, i32, i32, i32, %"struct.std::ios_base::_Callback_list"*, %"struct.std::ios_base::_Words", [8 x %"struct.std::ios_base::_Words"], i32, %"struct.std::ios_base::_Words"*, %"class.std::locale" }
%"struct.std::ios_base::_Callback_list" = type { %"struct.std::ios_base::_Callback_list"*, void (i32, %"class.std::ios_base"*, i32)*, i32, i32 }
%"struct.std::ios_base::_Words" = type { i8*, i64 }
%"class.std::locale" = type { %"class.std::locale::_Impl"* }
%"class.std::locale::_Impl" = type { i32, %"class.std::locale::facet"**, i64, %"class.std::locale::facet"**, i8** }
%"class.std::locale::facet" = type <{ i32 (...)**, i32, [4 x i8] }>
%"class.std::basic_streambuf" = type { i32 (...)**, i8*, i8*, i8*, i8*, i8*, i8*, %"class.std::locale" }
%"class.std::ctype" = type <{ %"class.std::locale::facet.base", [4 x i8], %struct.__locale_struct*, i8, [7 x i8], i32*, i32*, i16*, i8, [256 x i8], [256 x i8], i8, [6 x i8] }>
%"class.std::locale::facet.base" = type <{ i32 (...)**, i32 }>
%struct.__locale_struct = type { [13 x %struct.__locale_data*], i16*, i32*, i32*, [13 x i8*] }
%struct.__locale_data = type opaque
%"class.std::num_put" = type { %"class.std::locale::facet.base", [4 x i8] }
%"class.std::num_get" = type { %"class.std::locale::facet.base", [4 x i8] }
%"class.std::basic_istream" = type { i32 (...)**, i64, %"class.std::basic_ios" }

@_ZStL8__ioinit = internal global %"class.std::ios_base::Init" zeroinitializer, align 1
@__dso_handle = external hidden global i8
@_ZSt4cout = external global %"class.std::basic_ostream", align 8
@_ZSt3cin = external global %"class.std::basic_istream", align 8
@llvm.global_ctors = appending global [1 x { i32, void ()*, i8* }] [{ i32, void ()*, i8* } { i32 65535, void ()* @_GLOBAL__sub_I_773.cpp, i8* null }]

declare void @_ZNSt8ios_base4InitC1Ev(%"class.std::ios_base::Init"* nonnull align 1 dereferenceable(1)) unnamed_addr #0

; Function Attrs: nounwind
declare void @_ZNSt8ios_base4InitD1Ev(%"class.std::ios_base::Init"* nonnull align 1 dereferenceable(1)) unnamed_addr #1

; Function Attrs: nofree nounwind
declare i32 @__cxa_atexit(void (i8*)*, i8*, i8*) local_unnamed_addr #2

; Function Attrs: mustprogress nofree norecurse nosync nounwind readnone sspstrong uwtable willreturn
define dso_local i32 @_Z3abciii(i32 %0, i32 %1, i32 %2) local_unnamed_addr #3 {
  %4 = mul nsw i32 %1, %0
  %5 = add nsw i32 %1, -1
  %6 = sdiv i32 %4, %5
  %7 = add nsw i32 %6, %2
  ret i32 %7
}

; Function Attrs: mustprogress sspstrong uwtable
define dso_local void @_Z3Sumii(i32 %0, i32 %1) local_unnamed_addr #4 {
  %3 = add nsw i32 %0, -1
  %4 = icmp eq i32 %0, 0
  br i1 %4, label %23, label %5

5:                                                ; preds = %2
  %6 = icmp sgt i32 %0, 0
  call void @llvm.assume(i1 %6)
  br label %7

7:                                                ; preds = %5, %14
  %8 = phi i32 [ %15, %14 ], [ 1, %5 ]
  br label %9

9:                                                ; preds = %7, %17
  %10 = phi i32 [ 0, %7 ], [ %21, %17 ]
  %11 = phi i32 [ %8, %7 ], [ %20, %17 ]
  %12 = srem i32 %11, %3
  %13 = icmp eq i32 %12, 0
  br i1 %13, label %17, label %14

14:                                               ; preds = %9
  %15 = add nuw nsw i32 %8, 1
  %16 = icmp eq i32 %10, %0
  br i1 %16, label %23, label %7, !llvm.loop !5

17:                                               ; preds = %9
  %18 = mul nsw i32 %11, %0
  %19 = sdiv i32 %18, %3
  %20 = add nsw i32 %19, %1
  %21 = add nuw nsw i32 %10, 1
  %22 = icmp eq i32 %21, %0
  br i1 %22, label %23, label %9, !llvm.loop !7

23:                                               ; preds = %14, %17, %2
  %24 = phi i32 [ 1, %2 ], [ %20, %17 ], [ %11, %14 ]
  %25 = tail call nonnull align 8 dereferenceable(8) %"class.std::basic_ostream"* @_ZNSolsEi(%"class.std::basic_ostream"* nonnull align 8 dereferenceable(8) @_ZSt4cout, i32 %24)
  %26 = bitcast %"class.std::basic_ostream"* %25 to i8**
  %27 = load i8*, i8** %26, align 8, !tbaa !8
  %28 = getelementptr i8, i8* %27, i64 -24
  %29 = bitcast i8* %28 to i64*
  %30 = load i64, i64* %29, align 8
  %31 = bitcast %"class.std::basic_ostream"* %25 to i8*
  %32 = add nsw i64 %30, 240
  %33 = getelementptr inbounds i8, i8* %31, i64 %32
  %34 = bitcast i8* %33 to %"class.std::ctype"**
  %35 = load %"class.std::ctype"*, %"class.std::ctype"** %34, align 8, !tbaa !11
  %36 = icmp eq %"class.std::ctype"* %35, null
  br i1 %36, label %37, label %38

37:                                               ; preds = %23
  tail call void @_ZSt16__throw_bad_castv() #10
  unreachable

38:                                               ; preds = %23
  %39 = getelementptr inbounds %"class.std::ctype", %"class.std::ctype"* %35, i64 0, i32 8
  %40 = load i8, i8* %39, align 8, !tbaa !16
  %41 = icmp eq i8 %40, 0
  br i1 %41, label %45, label %42

42:                                               ; preds = %38
  %43 = getelementptr inbounds %"class.std::ctype", %"class.std::ctype"* %35, i64 0, i32 9, i64 10
  %44 = load i8, i8* %43, align 1, !tbaa !18
  br label %51

45:                                               ; preds = %38
  tail call void @_ZNKSt5ctypeIcE13_M_widen_initEv(%"class.std::ctype"* nonnull align 8 dereferenceable(570) %35)
  %46 = bitcast %"class.std::ctype"* %35 to i8 (%"class.std::ctype"*, i8)***
  %47 = load i8 (%"class.std::ctype"*, i8)**, i8 (%"class.std::ctype"*, i8)*** %46, align 8, !tbaa !8
  %48 = getelementptr inbounds i8 (%"class.std::ctype"*, i8)*, i8 (%"class.std::ctype"*, i8)** %47, i64 6
  %49 = load i8 (%"class.std::ctype"*, i8)*, i8 (%"class.std::ctype"*, i8)** %48, align 8
  %50 = tail call signext i8 %49(%"class.std::ctype"* nonnull align 8 dereferenceable(570) %35, i8 signext 10)
  br label %51

51:                                               ; preds = %42, %45
  %52 = phi i8 [ %44, %42 ], [ %50, %45 ]
  %53 = tail call nonnull align 8 dereferenceable(8) %"class.std::basic_ostream"* @_ZNSo3putEc(%"class.std::basic_ostream"* nonnull align 8 dereferenceable(8) %25, i8 signext %52)
  %54 = tail call nonnull align 8 dereferenceable(8) %"class.std::basic_ostream"* @_ZNSo5flushEv(%"class.std::basic_ostream"* nonnull align 8 dereferenceable(8) %53)
  ret void
}

; Function Attrs: argmemonly mustprogress nofree nosync nounwind willreturn
declare void @llvm.lifetime.start.p0i8(i64 immarg, i8* nocapture) #5

declare nonnull align 8 dereferenceable(8) %"class.std::basic_ostream"* @_ZNSolsEi(%"class.std::basic_ostream"* nonnull align 8 dereferenceable(8), i32) local_unnamed_addr #0

; Function Attrs: argmemonly mustprogress nofree nosync nounwind willreturn
declare void @llvm.lifetime.end.p0i8(i64 immarg, i8* nocapture) #5

; Function Attrs: mustprogress norecurse sspstrong uwtable
define dso_local i32 @main() local_unnamed_addr #6 {
  %1 = alloca i32, align 4
  %2 = alloca i32, align 4
  %3 = bitcast i32* %1 to i8*
  call void @llvm.lifetime.start.p0i8(i64 4, i8* nonnull %3) #11
  %4 = bitcast i32* %2 to i8*
  call void @llvm.lifetime.start.p0i8(i64 4, i8* nonnull %4) #11
  %5 = call nonnull align 8 dereferenceable(16) %"class.std::basic_istream"* @_ZNSirsERi(%"class.std::basic_istream"* nonnull align 8 dereferenceable(16) @_ZSt3cin, i32* nonnull align 4 dereferenceable(4) %1)
  %6 = call nonnull align 8 dereferenceable(16) %"class.std::basic_istream"* @_ZNSirsERi(%"class.std::basic_istream"* nonnull align 8 dereferenceable(16) %5, i32* nonnull align 4 dereferenceable(4) %2)
  %7 = load i32, i32* %1, align 4, !tbaa !19
  %8 = load i32, i32* %2, align 4, !tbaa !19
  call void @_Z3Sumii(i32 %7, i32 %8)
  call void @llvm.lifetime.end.p0i8(i64 4, i8* nonnull %4) #11
  call void @llvm.lifetime.end.p0i8(i64 4, i8* nonnull %3) #11
  ret i32 0
}

declare nonnull align 8 dereferenceable(16) %"class.std::basic_istream"* @_ZNSirsERi(%"class.std::basic_istream"* nonnull align 8 dereferenceable(16), i32* nonnull align 4 dereferenceable(4)) local_unnamed_addr #0

declare nonnull align 8 dereferenceable(8) %"class.std::basic_ostream"* @_ZNSo3putEc(%"class.std::basic_ostream"* nonnull align 8 dereferenceable(8), i8 signext) local_unnamed_addr #0

declare nonnull align 8 dereferenceable(8) %"class.std::basic_ostream"* @_ZNSo5flushEv(%"class.std::basic_ostream"* nonnull align 8 dereferenceable(8)) local_unnamed_addr #0

; Function Attrs: noreturn
declare void @_ZSt16__throw_bad_castv() local_unnamed_addr #7

declare void @_ZNKSt5ctypeIcE13_M_widen_initEv(%"class.std::ctype"* nonnull align 8 dereferenceable(570)) local_unnamed_addr #0

; Function Attrs: sspstrong uwtable
define internal void @_GLOBAL__sub_I_773.cpp() #8 section ".text.startup" {
  tail call void @_ZNSt8ios_base4InitC1Ev(%"class.std::ios_base::Init"* nonnull align 1 dereferenceable(1) @_ZStL8__ioinit)
  %1 = tail call i32 @__cxa_atexit(void (i8*)* bitcast (void (%"class.std::ios_base::Init"*)* @_ZNSt8ios_base4InitD1Ev to void (i8*)*), i8* getelementptr inbounds (%"class.std::ios_base::Init", %"class.std::ios_base::Init"* @_ZStL8__ioinit, i64 0, i32 0), i8* nonnull @__dso_handle) #11
  ret void
}

; Function Attrs: inaccessiblememonly nofree nosync nounwind willreturn
declare void @llvm.assume(i1 noundef) #9


!llvm.module.flags = !{!0, !1, !2, !3}
!llvm.ident = !{!4}

!0 = !{i32 1, !"wchar_size", i32 4}
!1 = !{i32 7, !"PIC Level", i32 2}
!2 = !{i32 7, !"PIE Level", i32 2}
!3 = !{i32 7, !"uwtable", i32 1}
!4 = !{!"clang version 13.0.0"}
!5 = distinct !{!5, !6}
!6 = !{!"llvm.loop.mustprogress"}
!7 = distinct !{!7, !6}
!8 = !{!9, !9, i64 0}
!9 = !{!"vtable pointer", !10, i64 0}
!10 = !{!"Simple C++ TBAA"}
!11 = !{!12, !13, i64 240}
!12 = !{!"_ZTSSt9basic_iosIcSt11char_traitsIcEE", !13, i64 216, !14, i64 224, !15, i64 225, !13, i64 232, !13, i64 240, !13, i64 248, !13, i64 256}
!13 = !{!"any pointer", !14, i64 0}
!14 = !{!"omnipotent char", !10, i64 0}
!15 = !{!"bool", !14, i64 0}
!16 = !{!17, !14, i64 56}
!17 = !{!"_ZTSSt5ctypeIcE", !13, i64 16, !15, i64 24, !13, i64 32, !13, i64 40, !13, i64 48, !14, i64 56, !14, i64 57, !14, i64 313, !14, i64 569}
!18 = !{!14, !14, i64 0}
!19 = !{!20, !20, i64 0}
!20 = !{!"int", !14, i64 0}
